(dp1
S'ident'
p2
(dp3
S'manuf'
p4
S'  GABRIE'
p5
sS'model'
p6
S'FLOWMETR'
p7
sS'points'
p8
I2
sS'rev'
p9
I1
sS'id'
p10
I1
ssS'version'
p11
I1
sS'desc'
p12
(dp13
I1
(dp14
S'rights'
p15
I2
sS'type'
p16
I1
sS'name'
p17
S'LITROS  '
p18
sS'unit'
p19
I41
sS'point'
p20
I17
ssI2
(dp21
S'rights'
p22
I2
sS'type'
p23
I1
sS'name'
p24
S'POINT02 '
p25
sS'unit'
p26
I252
sS'point'
p27
I18
sss..